target datalayout = "e-m:e-p270:32:32-p271:32:32-p272:64:64-i64:64-i128:128-f80:128-n8:16:32:64-S128"
target triple = "x86_64-pc-linux-gnu"

%"class.clang::Decl.base" = type <{ ptr, %"class.llvm::PointerIntPair.337", %"class.llvm::PointerUnion", %"class.clang::SourceLocation", i32, i8 }>
%"class.llvm::PointerIntPair.337" = type { %"struct.llvm::detail::PunnedPointer.338" }
%"struct.llvm::detail::PunnedPointer.338" = type { [8 x i8] }
%"class.llvm::PointerUnion" = type { %"class.llvm::pointer_union_detail::PointerUnionMembers" }
%"class.llvm::pointer_union_detail::PointerUnionMembers" = type { %"class.llvm::pointer_union_detail::PointerUnionMembers.339" }
%"class.llvm::pointer_union_detail::PointerUnionMembers.339" = type { %"class.llvm::pointer_union_detail::PointerUnionMembers.340" }
%"class.llvm::pointer_union_detail::PointerUnionMembers.340" = type { %"class.llvm::PointerIntPair.341" }
%"class.llvm::PointerIntPair.341" = type { %"struct.llvm::detail::PunnedPointer.342" }
%"struct.llvm::detail::PunnedPointer.342" = type { [8 x i8] }
%"class.clang::SourceLocation" = type { i32 }
%"class.clang::TypeDecl.base" = type <{ %"class.clang::NamedDecl", ptr, %"class.clang::SourceLocation" }>
%"class.clang::NamedDecl" = type { %"class.clang::Decl.base", %"class.clang::DeclarationName" }
%"class.clang::DeclarationName" = type { i64 }
%"class.clang::TypeDecl" = type <{ %"class.clang::NamedDecl", ptr, %"class.clang::SourceLocation", [4 x i8] }>
%"class.clang::NestedNameSpecifierLoc" = type { ptr, ptr }
%"class.clang::UnresolvedUsingTypenameDecl" = type { %"class.clang::TypeDecl.base", %"class.clang::SourceLocation", %"class.clang::SourceLocation", %"class.clang::NestedNameSpecifierLoc" }

@_ZTVN5clang9NamedDeclE = external unnamed_addr constant { [15 x ptr] }, align 8
@_ZTVN5clang8TypeDeclE = external unnamed_addr constant { [15 x ptr] }, align 8

; Function Attrs: mustprogress nounwind uwtable
define linkonce_odr hidden void @_ZN5clang15DeclarationName13setPtrAndKindEPKvNS0_14StoredNameKindE(ptr noundef nonnull align 8 dereferenceable(8) %0, ptr noundef %1, i32 noundef %2) #0 comdat align 2 {
  %4 = alloca ptr, align 8
  %5 = alloca ptr, align 8
  %6 = alloca i32, align 4
  %7 = alloca i64, align 8
  store ptr %0, ptr %4, align 8
  store ptr %1, ptr %5, align 8
  store i32 %2, ptr %6, align 4
  %8 = load ptr, ptr %4, align 8
  %9 = load ptr, ptr %5, align 8
  %10 = ptrtoint ptr %9 to i64
  store i64 %10, ptr %7, align 8
  %11 = load i64, ptr %7, align 8
  %12 = load i32, ptr %6, align 4
  %13 = zext i32 %12 to i64
  %14 = or i64 %11, %13
  %15 = getelementptr inbounds nuw %"class.clang::DeclarationName", ptr %8, i32 0, i32 0
  store i64 %14, ptr %15, align 8
  ret void
}

; Function Attrs: mustprogress nounwind uwtable
define linkonce_odr hidden void @_ZN5clang9NamedDeclC2ENS_4Decl4KindEPNS_11DeclContextENS_14SourceLocationENS_15DeclarationNameE(ptr noundef nonnull align 8 dereferenceable(48) %0, i32 noundef %1, ptr noundef %2, i32 %3, i64 %4) unnamed_addr #0 comdat align 2 {
  %6 = alloca %"class.clang::SourceLocation", align 4
  %7 = alloca %"class.clang::DeclarationName", align 8
  %8 = alloca ptr, align 8
  %9 = alloca i32, align 4
  %10 = alloca ptr, align 8
  %11 = alloca %"class.clang::SourceLocation", align 4
  %12 = getelementptr inbounds nuw %"class.clang::SourceLocation", ptr %6, i32 0, i32 0
  store i32 %3, ptr %12, align 4
  %13 = getelementptr inbounds nuw %"class.clang::DeclarationName", ptr %7, i32 0, i32 0
  store i64 %4, ptr %13, align 8
  store ptr %0, ptr %8, align 8
  store i32 %1, ptr %9, align 4
  store ptr %2, ptr %10, align 8
  %14 = load ptr, ptr %8, align 8
  %15 = load i32, ptr %9, align 4
  %16 = load ptr, ptr %10, align 8
  call void @llvm.memcpy.p0.p0.i64(ptr align 4 %11, ptr align 4 %6, i64 4, i1 false)
  %17 = getelementptr inbounds nuw %"class.clang::SourceLocation", ptr %11, i32 0, i32 0
  %18 = load i32, ptr %17, align 4
  call void @_ZN5clang4DeclC2ENS0_4KindEPNS_11DeclContextENS_14SourceLocationE(ptr noundef nonnull align 8 dereferenceable(33) %14, i32 noundef %15, ptr noundef %16, i32 %18)
  store ptr getelementptr inbounds inrange(-16, 104) ({ [15 x ptr] }, ptr @_ZTVN5clang9NamedDeclE, i32 0, i32 0, i32 2), ptr %14, align 8
  %19 = getelementptr inbounds nuw %"class.clang::NamedDecl", ptr %14, i32 0, i32 1
  call void @llvm.memcpy.p0.p0.i64(ptr align 8 %19, ptr align 8 %7, i64 8, i1 false)
  ret void
}

; Function Attrs: mustprogress nounwind uwtable
define linkonce_odr hidden void @_ZN5clang15DeclarationNameC2EPKNS_14IdentifierInfoE(ptr noundef nonnull align 8 dereferenceable(8) %0, ptr noundef %1) unnamed_addr #0 comdat align 2 {
  %3 = alloca ptr, align 8
  %4 = alloca ptr, align 8
  store ptr %0, ptr %3, align 8
  store ptr %1, ptr %4, align 8
  %5 = load ptr, ptr %3, align 8
  %6 = getelementptr inbounds nuw %"class.clang::DeclarationName", ptr %5, i32 0, i32 0
  store i64 0, ptr %6, align 8
  %7 = load ptr, ptr %4, align 8
  call void @_ZN5clang15DeclarationName13setPtrAndKindEPKvNS0_14StoredNameKindE(ptr noundef nonnull align 8 dereferenceable(8) %5, ptr noundef %7, i32 noundef 0)
  ret void
}

; Function Attrs: mustprogress nounwind uwtable
define linkonce_odr hidden noundef ptr @_ZNK5clang15DeclarationName6getPtrEv(ptr noundef nonnull align 8 dereferenceable(8) %0) #0 comdat align 2 {
  %2 = alloca ptr, align 8
  store ptr %0, ptr %2, align 8
  %3 = load ptr, ptr %2, align 8
  %4 = getelementptr inbounds nuw %"class.clang::DeclarationName", ptr %3, i32 0, i32 0
  %5 = load i64, ptr %4, align 8
  %6 = and i64 %5, -8
  %7 = inttoptr i64 %6 to ptr
  ret ptr %7
}

; Function Attrs: mustprogress nounwind uwtable
define linkonce_odr hidden noundef i32 @_ZNK5clang15DeclarationName17getStoredNameKindEv(ptr noundef nonnull align 8 dereferenceable(8) %0) #0 comdat align 2 {
  %2 = alloca ptr, align 8
  store ptr %0, ptr %2, align 8
  %3 = load ptr, ptr %2, align 8
  %4 = getelementptr inbounds nuw %"class.clang::DeclarationName", ptr %3, i32 0, i32 0
  %5 = load i64, ptr %4, align 8
  %6 = and i64 %5, 7
  %7 = trunc i64 %6 to i32
  ret i32 %7
}

; Function Attrs: mustprogress nounwind uwtable
define linkonce_odr hidden void @_ZN5clang8TypeDeclC2ENS_4Decl4KindEPNS_11DeclContextENS_14SourceLocationEPKNS_14IdentifierInfoES5_(ptr noundef nonnull align 8 dereferenceable(60) %0, i32 noundef %1, ptr noundef %2, i32 %3, ptr noundef %4, i32 %5) unnamed_addr #0 comdat align 2 {
  %7 = alloca %"class.clang::SourceLocation", align 4
  %8 = alloca %"class.clang::SourceLocation", align 4
  %9 = alloca ptr, align 8
  %10 = alloca i32, align 4
  %11 = alloca ptr, align 8
  %12 = alloca ptr, align 8
  %13 = alloca %"class.clang::SourceLocation", align 4
  %14 = alloca %"class.clang::DeclarationName", align 8
  %15 = getelementptr inbounds nuw %"class.clang::SourceLocation", ptr %7, i32 0, i32 0
  store i32 %3, ptr %15, align 4
  %16 = getelementptr inbounds nuw %"class.clang::SourceLocation", ptr %8, i32 0, i32 0
  store i32 %5, ptr %16, align 4
  store ptr %0, ptr %9, align 8
  store i32 %1, ptr %10, align 4
  store ptr %2, ptr %11, align 8
  store ptr %4, ptr %12, align 8
  %17 = load ptr, ptr %9, align 8
  %18 = load i32, ptr %10, align 4
  %19 = load ptr, ptr %11, align 8
  call void @llvm.memcpy.p0.p0.i64(ptr align 4 %13, ptr align 4 %7, i64 4, i1 false)
  %20 = load ptr, ptr %12, align 8
  call void @_ZN5clang15DeclarationNameC2EPKNS_14IdentifierInfoE(ptr noundef nonnull align 8 dereferenceable(8) %14, ptr noundef %20)
  %21 = getelementptr inbounds nuw %"class.clang::SourceLocation", ptr %13, i32 0, i32 0
  %22 = load i32, ptr %21, align 4
  %23 = getelementptr inbounds nuw %"class.clang::DeclarationName", ptr %14, i32 0, i32 0
  %24 = load i64, ptr %23, align 8
  call void @_ZN5clang9NamedDeclC2ENS_4Decl4KindEPNS_11DeclContextENS_14SourceLocationENS_15DeclarationNameE(ptr noundef nonnull align 8 dereferenceable(48) %17, i32 noundef %18, ptr noundef %19, i32 %22, i64 %24)
  store ptr getelementptr inbounds inrange(-16, 104) ({ [15 x ptr] }, ptr @_ZTVN5clang8TypeDeclE, i32 0, i32 0, i32 2), ptr %17, align 8
  %25 = getelementptr inbounds nuw %"class.clang::TypeDecl", ptr %17, i32 0, i32 1
  store ptr null, ptr %25, align 8
  %26 = getelementptr inbounds nuw %"class.clang::TypeDecl", ptr %17, i32 0, i32 2
  call void @llvm.memcpy.p0.p0.i64(ptr align 8 %26, ptr align 4 %8, i64 4, i1 false)
  ret void
}

; Function Attrs: mustprogress nounwind uwtable
define linkonce_odr hidden noundef ptr @_ZNK5clang15DeclarationName20castAsIdentifierInfoEv(ptr noundef nonnull align 8 dereferenceable(8) %0) #0 comdat align 2 {
  %2 = alloca ptr, align 8
  store ptr %0, ptr %2, align 8
  %3 = load ptr, ptr %2, align 8
  %4 = call noundef ptr @_ZNK5clang15DeclarationName6getPtrEv(ptr noundef nonnull align 8 dereferenceable(8) %3)
  ret ptr %4
}

; Function Attrs: mustprogress nounwind uwtable
define linkonce_odr hidden noundef zeroext i1 @_ZNK5clang15DeclarationName12isIdentifierEv(ptr noundef nonnull align 8 dereferenceable(8) %0) #0 comdat align 2 {
  %2 = alloca ptr, align 8
  store ptr %0, ptr %2, align 8
  %3 = load ptr, ptr %2, align 8
  %4 = call noundef i32 @_ZNK5clang15DeclarationName17getStoredNameKindEv(ptr noundef nonnull align 8 dereferenceable(8) %3)
  %5 = icmp eq i32 %4, 0
  ret i1 %5
}

; Function Attrs: mustprogress nounwind uwtable
define linkonce_odr hidden void @_ZN5clang27UnresolvedUsingTypenameDeclC2EPNS_11DeclContextENS_14SourceLocationES3_NS_22NestedNameSpecifierLocES3_PNS_14IdentifierInfoES3_(ptr noundef nonnull align 8 dereferenceable(88) %0, ptr noundef %1, i32 %2, i32 %3, ptr %4, ptr %5, i32 %6, ptr noundef %7, i32 %8) unnamed_addr #0 comdat align 2 {
  %10 = alloca %"class.clang::SourceLocation", align 4
  %11 = alloca %"class.clang::SourceLocation", align 4
  %12 = alloca %"class.clang::NestedNameSpecifierLoc", align 8
  %13 = alloca %"class.clang::SourceLocation", align 4
  %14 = alloca %"class.clang::SourceLocation", align 4
  %15 = alloca ptr, align 8
  %16 = alloca ptr, align 8
  %17 = alloca ptr, align 8
  %18 = alloca %"class.clang::SourceLocation", align 4
  %19 = alloca %"class.clang::SourceLocation", align 4
  %20 = getelementptr inbounds nuw %"class.clang::SourceLocation", ptr %10, i32 0, i32 0
  store i32 %2, ptr %20, align 4
  %21 = getelementptr inbounds nuw %"class.clang::SourceLocation", ptr %11, i32 0, i32 0
  store i32 %3, ptr %21, align 4
  %22 = getelementptr inbounds nuw { ptr, ptr }, ptr %12, i32 0, i32 0
  store ptr %4, ptr %22, align 8
  %23 = getelementptr inbounds nuw { ptr, ptr }, ptr %12, i32 0, i32 1
  store ptr %5, ptr %23, align 8
  %24 = getelementptr inbounds nuw %"class.clang::SourceLocation", ptr %13, i32 0, i32 0
  store i32 %6, ptr %24, align 4
  %25 = getelementptr inbounds nuw %"class.clang::SourceLocation", ptr %14, i32 0, i32 0
  store i32 %8, ptr %25, align 4
  store ptr %0, ptr %15, align 8
  store ptr %1, ptr %16, align 8
  store ptr %7, ptr %17, align 8
  %26 = load ptr, ptr %15, align 8
  %27 = load ptr, ptr %16, align 8
  call void @llvm.memcpy.p0.p0.i64(ptr align 4 %18, ptr align 4 %13, i64 4, i1 false)
  %28 = load ptr, ptr %17, align 8
  call void @llvm.memcpy.p0.p0.i64(ptr align 4 %19, ptr align 4 %10, i64 4, i1 false)
  %29 = getelementptr inbounds nuw %"class.clang::SourceLocation", ptr %18, i32 0, i32 0
  %30 = load i32, ptr %29, align 4
  %31 = getelementptr inbounds nuw %"class.clang::SourceLocation", ptr %19, i32 0, i32 0
  %32 = load i32, ptr %31, align 4
  call void @_ZN5clang8TypeDeclC2ENS_4Decl4KindEPNS_11DeclContextENS_14SourceLocationEPKNS_14IdentifierInfoES5_(ptr noundef nonnull align 8 dereferenceable(60) %26, i32 noundef 60, ptr noundef %27, i32 %30, ptr noundef %28, i32 %32)
  store ptr getelementptr inbounds inrange(-16, 104) ({ [15 x ptr] }, ptr @_ZTVN5clang27UnresolvedUsingTypenameDeclE, i32 0, i32 0, i32 2), ptr %26, align 8
  %33 = getelementptr inbounds nuw %"class.clang::UnresolvedUsingTypenameDecl", ptr %26, i32 0, i32 1
  call void @llvm.memcpy.p0.p0.i64(ptr align 4 %33, ptr align 4 %11, i64 4, i1 false)
  %34 = getelementptr inbounds nuw %"class.clang::UnresolvedUsingTypenameDecl", ptr %26, i32 0, i32 2
  call void @llvm.memcpy.p0.p0.i64(ptr align 8 %34, ptr align 4 %14, i64 4, i1 false)
  %35 = getelementptr inbounds nuw %"class.clang::UnresolvedUsingTypenameDecl", ptr %26, i32 0, i32 3
  call void @llvm.memcpy.p0.p0.i64(ptr align 8 %35, ptr align 8 %12, i64 16, i1 false)
  ret void
}

; Function Attrs: mustprogress nounwind uwtable
define linkonce_odr hidden noundef ptr @_ZNK5clang15DeclarationName19getAsIdentifierInfoEv(ptr noundef nonnull align 8 dereferenceable(8) %0) #0 comdat align 2 {
  %2 = alloca ptr, align 8
  %3 = alloca ptr, align 8
  store ptr %0, ptr %3, align 8
  %4 = load ptr, ptr %3, align 8
  %5 = call noundef zeroext i1 @_ZNK5clang15DeclarationName12isIdentifierEv(ptr noundef nonnull align 8 dereferenceable(8) %4)
  br i1 %5, label %6, label %8

6:                                                ; preds = %1
  %7 = call noundef ptr @_ZNK5clang15DeclarationName20castAsIdentifierInfoEv(ptr noundef nonnull align 8 dereferenceable(8) %4)
  store ptr %7, ptr %2, align 8
  br label %9

8:                                                ; preds = %1
  store ptr null, ptr %2, align 8
  br label %9

9:                                                ; preds = %8, %6
  %10 = load ptr, ptr %2, align 8
  ret ptr %10
}

; Function Attrs: mustprogress nounwind uwtable
define dso_local noundef ptr @_ZN5clang27UnresolvedUsingTypenameDecl6CreateERNS_10ASTContextEPNS_11DeclContextENS_14SourceLocationES5_NS_22NestedNameSpecifierLocES5_NS_15DeclarationNameES5_(ptr noundef nonnull align 8 dereferenceable(23096) %0, ptr noundef %1, i32 %2, i32 %3, ptr %4, ptr %5, i32 %6, i64 %7, i32 %8) #0 align 2 {
  %10 = alloca %"class.clang::SourceLocation", align 4
  %11 = alloca %"class.clang::SourceLocation", align 4
  %12 = alloca %"class.clang::NestedNameSpecifierLoc", align 8
  %13 = alloca %"class.clang::SourceLocation", align 4
  %14 = alloca %"class.clang::DeclarationName", align 8
  %15 = alloca %"class.clang::SourceLocation", align 4
  %16 = alloca ptr, align 8
  %17 = alloca ptr, align 8
  %18 = alloca %"class.clang::SourceLocation", align 4
  %19 = alloca %"class.clang::SourceLocation", align 4
  %20 = alloca %"class.clang::NestedNameSpecifierLoc", align 8
  %21 = alloca %"class.clang::SourceLocation", align 4
  %22 = alloca %"class.clang::SourceLocation", align 4
  %23 = getelementptr inbounds nuw %"class.clang::SourceLocation", ptr %10, i32 0, i32 0
  store i32 %2, ptr %23, align 4
  %24 = getelementptr inbounds nuw %"class.clang::SourceLocation", ptr %11, i32 0, i32 0
  store i32 %3, ptr %24, align 4
  %25 = getelementptr inbounds nuw { ptr, ptr }, ptr %12, i32 0, i32 0
  store ptr %4, ptr %25, align 8
  %26 = getelementptr inbounds nuw { ptr, ptr }, ptr %12, i32 0, i32 1
  store ptr %5, ptr %26, align 8
  %27 = getelementptr inbounds nuw %"class.clang::SourceLocation", ptr %13, i32 0, i32 0
  store i32 %6, ptr %27, align 4
  %28 = getelementptr inbounds nuw %"class.clang::DeclarationName", ptr %14, i32 0, i32 0
  store i64 %7, ptr %28, align 8
  %29 = getelementptr inbounds nuw %"class.clang::SourceLocation", ptr %15, i32 0, i32 0
  store i32 %8, ptr %29, align 4
  store ptr %0, ptr %16, align 8
  store ptr %1, ptr %17, align 8
  %30 = load ptr, ptr %16, align 8
  %31 = load ptr, ptr %17, align 8
  %32 = call noundef ptr @_ZN5clang4DeclnwEmRKNS_10ASTContextEPNS_11DeclContextEm(i64 noundef 88, ptr noundef nonnull align 8 dereferenceable(23096) %30, ptr noundef %31, i64 noundef 0)
  %33 = load ptr, ptr %17, align 8
  call void @llvm.memcpy.p0.p0.i64(ptr align 4 %18, ptr align 4 %10, i64 4, i1 false)
  call void @llvm.memcpy.p0.p0.i64(ptr align 4 %19, ptr align 4 %11, i64 4, i1 false)
  call void @llvm.memcpy.p0.p0.i64(ptr align 8 %20, ptr align 8 %12, i64 16, i1 false)
  call void @llvm.memcpy.p0.p0.i64(ptr align 4 %21, ptr align 4 %13, i64 4, i1 false)
  %34 = call noundef ptr @_ZNK5clang15DeclarationName19getAsIdentifierInfoEv(ptr noundef nonnull align 8 dereferenceable(8) %14)
  call void @llvm.memcpy.p0.p0.i64(ptr align 4 %22, ptr align 4 %15, i64 4, i1 false)
  %35 = getelementptr inbounds nuw %"class.clang::SourceLocation", ptr %18, i32 0, i32 0
  %36 = load i32, ptr %35, align 4
  %37 = getelementptr inbounds nuw %"class.clang::SourceLocation", ptr %19, i32 0, i32 0
  %38 = load i32, ptr %37, align 4
  %39 = getelementptr inbounds nuw { ptr, ptr }, ptr %20, i32 0, i32 0
  %40 = load ptr, ptr %39, align 8
  %41 = getelementptr inbounds nuw { ptr, ptr }, ptr %20, i32 0, i32 1
  %42 = load ptr, ptr %41, align 8
  %43 = getelementptr inbounds nuw %"class.clang::SourceLocation", ptr %21, i32 0, i32 0
  %44 = load i32, ptr %43, align 4
  %45 = getelementptr inbounds nuw %"class.clang::SourceLocation", ptr %22, i32 0, i32 0
  %46 = load i32, ptr %45, align 4
  call void @_ZN5clang27UnresolvedUsingTypenameDeclC2EPNS_11DeclContextENS_14SourceLocationES3_NS_22NestedNameSpecifierLocES3_PNS_14IdentifierInfoES3_(ptr noundef nonnull align 8 dereferenceable(88) %32, ptr noundef %33, i32 %36, i32 %38, ptr %40, ptr %42, i32 %44, ptr noundef %34, i32 %46)
  ret ptr %32
}