; Function Attrs: mustprogress nounwind uwtable
define dso_local noundef ptr @_ZN5clang27UnresolvedUsingTypenameDecl6CreateERNS_10ASTContextEPNS_11DeclContextENS_14SourceLocationES5_NS_22NestedNameSpecifierLocES5_NS_15DeclarationNameES5_(ptr noundef nonnull align 8 dereferenceable(23096) %0, ptr noundef %1, i32 %2, i32 %3, ptr %4, ptr %5, i32 %6, i64 %7, i32 %8) local_unnamed_addr #1 align 2 {
  %10 = tail call noundef ptr @_ZN5clang4DeclnwEmRKNS_10ASTContextEPNS_11DeclContextEm(i64 noundef 88, ptr noundef nonnull align 8 dereferenceable(23096) %0, ptr noundef %1, i64 noundef 0) #25
  %11 = and i64 %7, 7
  %12 = icmp eq i64 %11, 0
  %13 = and i64 %7, -8
  %14 = select i1 %12, i64 %13, i64 0
  tail call void @_ZN5clang4DeclC2ENS0_4KindEPNS_11DeclContextENS_14SourceLocationE(ptr noundef nonnull align 8 dereferenceable(88) %10, i32 noundef 60, ptr noundef %1, i32 %6)
  %15 = getelementptr inbounds nuw i8, ptr %10, i64 40
  store i64 %14, ptr %15, align 8
  %16 = getelementptr inbounds nuw i8, ptr %10, i64 48
  store ptr null, ptr %16, align 8
  %17 = getelementptr inbounds nuw i8, ptr %10, i64 56
  store i32 %2, ptr %17, align 8
  store ptr getelementptr inbounds nuw inrange(-16, 104) (i8, ptr @_ZTVN5clang27UnresolvedUsingTypenameDeclE, i64 16), ptr %10, align 8
  %18 = getelementptr inbounds nuw i8, ptr %10, i64 60
  store i32 %3, ptr %18, align 4
  %19 = getelementptr inbounds nuw i8, ptr %10, i64 64
  store i32 %8, ptr %19, align 8
  %20 = getelementptr inbounds nuw i8, ptr %10, i64 72
  store ptr %4, ptr %20, align 8
  %.sroa.2.0..sroa_idx.i = getelementptr inbounds nuw i8, ptr %10, i64 80
  store ptr %5, ptr %.sroa.2.0..sroa_idx.i, align 8
  ret ptr %10
}